target datalayout = "e-m:e-p270:32:32-p271:32:32-p272:64:64-i64:64-i128:128-f80:128-n8:16:32:64-S128"
target triple = "x86_64-pc-linux-gnu"

%struct.PJconsts = type { ptr, ptr, ptr, ptr, ptr, ptr, ptr, ptr, ptr, ptr, ptr, ptr, i32, ptr, ptr, ptr, ptr, ptr, ptr, ptr, ptr, double, double, double, double, double, double, double, double, double, double, double, double, double, double, double, double, double, double, double, double, double, double, i32, i32, i32, i32, i32, i32, i32, i32, i32, i32, i32, ptr, ptr, ptr, ptr, ptr, ptr, double, double, double, double, double, double, double, double, double, double, double, i32, [7 x double], i32, ptr, ptr, double, double, i32, [4 x i8], %"class.std::shared_ptr", i8, double, i8, %"class.std::__cxx11::basic_string", %"class.std::__cxx11::basic_string", %"class.std::__cxx11::basic_string", i8, %"class.std::vector", i32, %"class.std::vector.3", i32, i8, i8, i8, ptr }
%"class.std::shared_ptr" = type { %"class.std::__shared_ptr" }
%"class.std::__shared_ptr" = type { ptr, %"class.std::__shared_count" }
%"class.std::__shared_count" = type { ptr }
%"class.std::__cxx11::basic_string" = type { %"struct.std::__cxx11::basic_string<char>::_Alloc_hider", i64, %union.anon }
%"struct.std::__cxx11::basic_string<char>::_Alloc_hider" = type { ptr }
%union.anon = type { i64, [8 x i8] }
%"class.std::vector" = type { %"struct.std::_Vector_base" }
%"struct.std::_Vector_base" = type { %"struct.std::_Vector_base<osgeo::proj::operation::GridDescription, std::allocator<osgeo::proj::operation::GridDescription>>::_Vector_impl" }
%"struct.std::_Vector_base<osgeo::proj::operation::GridDescription, std::allocator<osgeo::proj::operation::GridDescription>>::_Vector_impl" = type { %"struct.std::_Vector_base<osgeo::proj::operation::GridDescription, std::allocator<osgeo::proj::operation::GridDescription>>::_Vector_impl_data" }
%"struct.std::_Vector_base<osgeo::proj::operation::GridDescription, std::allocator<osgeo::proj::operation::GridDescription>>::_Vector_impl_data" = type { ptr, ptr, ptr }
%"class.std::vector.3" = type { %"struct.std::_Vector_base.4" }
%"struct.std::_Vector_base.4" = type { %"struct.std::_Vector_base<PJCoordOperation, std::allocator<PJCoordOperation>>::_Vector_impl" }
%"struct.std::_Vector_base<PJCoordOperation, std::allocator<PJCoordOperation>>::_Vector_impl" = type { %"struct.std::_Vector_base<PJCoordOperation, std::allocator<PJCoordOperation>>::_Vector_impl_data" }
%"struct.std::_Vector_base<PJCoordOperation, std::allocator<PJCoordOperation>>::_Vector_impl_data" = type { ptr, ptr, ptr }
%"struct.(anonymous namespace)::pj_aea" = type { double, double, double, double, double, double, double, double, double, ptr, i32 }
%struct.PJ_LP = type { double, double }
%struct.PJ_XY = type { double, double }

; Function Attrs: mustprogress uwtable
define internal { double, double } @_ZL13aea_e_forward5PJ_LPP8PJconsts(double %0, double %1, ptr noundef %2) #0 {
  %4 = alloca %struct.PJ_XY, align 8
  %5 = alloca %struct.PJ_LP, align 8
  %6 = alloca ptr, align 8
  %7 = alloca ptr, align 8
  %8 = alloca i32, align 4
  %9 = getelementptr inbounds nuw { double, double }, ptr %5, i32 0, i32 0
  store double %0, ptr %9, align 8
  %10 = getelementptr inbounds nuw { double, double }, ptr %5, i32 0, i32 1
  store double %1, ptr %10, align 8
  store ptr %2, ptr %6, align 8, !tbaa !3
  call void @llvm.memset.p0.i64(ptr align 8 %4, i8 0, i64 16, i1 false)
  call void @llvm.lifetime.start.p0(i64 8, ptr %7) #8
  %11 = load ptr, ptr %6, align 8, !tbaa !3
  %12 = getelementptr inbounds nuw %struct.PJconsts, ptr %11, i32 0, i32 11
  %13 = load ptr, ptr %12, align 8, !tbaa !43
  store ptr %13, ptr %7, align 8, !tbaa !41
  %14 = load ptr, ptr %7, align 8, !tbaa !41
  %15 = getelementptr inbounds nuw %"struct.(anonymous namespace)::pj_aea", ptr %14, i32 0, i32 2
  %16 = load double, ptr %15, align 8, !tbaa !64
  %17 = load ptr, ptr %7, align 8, !tbaa !41
  %18 = getelementptr inbounds nuw %"struct.(anonymous namespace)::pj_aea", ptr %17, i32 0, i32 10
  %19 = load i32, ptr %18, align 8, !tbaa !59
  %20 = icmp ne i32 %19, 0
  br i1 %20, label %21, label %36

21:                                               ; preds = %3
  %22 = load ptr, ptr %7, align 8, !tbaa !41
  %23 = getelementptr inbounds nuw %"struct.(anonymous namespace)::pj_aea", ptr %22, i32 0, i32 1
  %24 = load double, ptr %23, align 8, !tbaa !57
  %25 = getelementptr inbounds nuw %struct.PJ_LP, ptr %5, i32 0, i32 1
  %26 = load double, ptr %25, align 8, !tbaa !73
  %27 = call double @sin(double noundef %26) #8, !tbaa !52
  %28 = load ptr, ptr %6, align 8, !tbaa !3
  %29 = getelementptr inbounds nuw %struct.PJconsts, ptr %28, i32 0, i32 26
  %30 = load double, ptr %29, align 8, !tbaa !61
  %31 = load ptr, ptr %6, align 8, !tbaa !3
  %32 = getelementptr inbounds nuw %struct.PJconsts, ptr %31, i32 0, i32 32
  %33 = load double, ptr %32, align 8, !tbaa !62
  %34 = call noundef double @_Z7pj_qsfnddd(double noundef %27, double noundef %30, double noundef %33)
  %35 = fmul double %24, %34
  br label %44

36:                                               ; preds = %3
  %37 = load ptr, ptr %7, align 8, !tbaa !41
  %38 = getelementptr inbounds nuw %"struct.(anonymous namespace)::pj_aea", ptr %37, i32 0, i32 4
  %39 = load double, ptr %38, align 8, !tbaa !68
  %40 = getelementptr inbounds nuw %struct.PJ_LP, ptr %5, i32 0, i32 1
  %41 = load double, ptr %40, align 8, !tbaa !73
  %42 = call double @sin(double noundef %41) #8, !tbaa !52
  %43 = fmul double %39, %42
  br label %44

44:                                               ; preds = %36, %21
  %45 = phi double [ %35, %21 ], [ %43, %36 ]
  %46 = fsub double %16, %45
  %47 = load ptr, ptr %7, align 8, !tbaa !41
  %48 = getelementptr inbounds nuw %"struct.(anonymous namespace)::pj_aea", ptr %47, i32 0, i32 6
  store double %46, ptr %48, align 8, !tbaa !72
  %49 = load ptr, ptr %7, align 8, !tbaa !41
  %50 = getelementptr inbounds nuw %"struct.(anonymous namespace)::pj_aea", ptr %49, i32 0, i32 6
  %51 = load double, ptr %50, align 8, !tbaa !72
  %52 = fcmp olt double %51, 0.000000e+00
  br i1 %52, label %53, label %56

53:                                               ; preds = %44
  %54 = load ptr, ptr %6, align 8, !tbaa !3
  %55 = call i32 @proj_errno_set(ptr noundef %54, i32 noundef 2050)
  store i32 1, ptr %8, align 4
  br label %93

56:                                               ; preds = %44
  %57 = load ptr, ptr %7, align 8, !tbaa !41
  %58 = getelementptr inbounds nuw %"struct.(anonymous namespace)::pj_aea", ptr %57, i32 0, i32 3
  %59 = load double, ptr %58, align 8, !tbaa !65
  %60 = load ptr, ptr %7, align 8, !tbaa !41
  %61 = getelementptr inbounds nuw %"struct.(anonymous namespace)::pj_aea", ptr %60, i32 0, i32 6
  %62 = load double, ptr %61, align 8, !tbaa !72
  %63 = call double @sqrt(double noundef %62) #8, !tbaa !52
  %64 = fmul double %59, %63
  %65 = load ptr, ptr %7, align 8, !tbaa !41
  %66 = getelementptr inbounds nuw %"struct.(anonymous namespace)::pj_aea", ptr %65, i32 0, i32 6
  store double %64, ptr %66, align 8, !tbaa !72
  %67 = load ptr, ptr %7, align 8, !tbaa !41
  %68 = getelementptr inbounds nuw %"struct.(anonymous namespace)::pj_aea", ptr %67, i32 0, i32 1
  %69 = load double, ptr %68, align 8, !tbaa !57
  %70 = getelementptr inbounds nuw %struct.PJ_LP, ptr %5, i32 0, i32 0
  %71 = load double, ptr %70, align 8, !tbaa !75
  %72 = fmul double %71, %69
  store double %72, ptr %70, align 8, !tbaa !75
  %73 = load ptr, ptr %7, align 8, !tbaa !41
  %74 = getelementptr inbounds nuw %"struct.(anonymous namespace)::pj_aea", ptr %73, i32 0, i32 6
  %75 = load double, ptr %74, align 8, !tbaa !72
  %76 = getelementptr inbounds nuw %struct.PJ_LP, ptr %5, i32 0, i32 0
  %77 = load double, ptr %76, align 8, !tbaa !75
  %78 = call double @sin(double noundef %77) #8, !tbaa !52
  %79 = fmul double %75, %78
  %80 = getelementptr inbounds nuw %struct.PJ_XY, ptr %4, i32 0, i32 0
  store double %79, ptr %80, align 8, !tbaa !71
  %81 = load ptr, ptr %7, align 8, !tbaa !41
  %82 = getelementptr inbounds nuw %"struct.(anonymous namespace)::pj_aea", ptr %81, i32 0, i32 5
  %83 = load double, ptr %82, align 8, !tbaa !67
  %84 = load ptr, ptr %7, align 8, !tbaa !41
  %85 = getelementptr inbounds nuw %"struct.(anonymous namespace)::pj_aea", ptr %84, i32 0, i32 6
  %86 = load double, ptr %85, align 8, !tbaa !72
  %87 = getelementptr inbounds nuw %struct.PJ_LP, ptr %5, i32 0, i32 0
  %88 = load double, ptr %87, align 8, !tbaa !75
  %89 = call double @cos(double noundef %88) #8, !tbaa !52
  %90 = fneg double %86
  %91 = call double @llvm.fmuladd.f64(double %90, double %89, double %83)
  %92 = getelementptr inbounds nuw %struct.PJ_XY, ptr %4, i32 0, i32 1
  store double %91, ptr %92, align 8, !tbaa !69
  store i32 1, ptr %8, align 4
  br label %93

93:                                               ; preds = %56, %53
  call void @llvm.lifetime.end.p0(i64 8, ptr %7) #8
  %94 = load { double, double }, ptr %4, align 8
  ret { double, double } %94
}