; Function Attrs: mustprogress uwtable
define internal { double, double } @_ZL13aea_e_forward5PJ_LPP8PJconsts(double %0, double %1, ptr noundef %2) #0 {
  %4 = getelementptr inbounds nuw i8, ptr %2, i64 88
  %5 = load ptr, ptr %4, align 8, !tbaa !3
  %6 = getelementptr inbounds nuw i8, ptr %5, i64 16
  %7 = load double, ptr %6, align 8, !tbaa !59
  %8 = getelementptr inbounds nuw i8, ptr %5, i64 80
  %9 = load i32, ptr %8, align 8, !tbaa !54
  %.not = icmp eq i32 %9, 0
  br i1 %.not, label %20, label %10

10:                                               ; preds = %3
  %11 = getelementptr inbounds nuw i8, ptr %5, i64 8
  %12 = load double, ptr %11, align 8, !tbaa !52
  %13 = tail call double @sin(double noundef %1) #7, !tbaa !51
  %14 = getelementptr inbounds nuw i8, ptr %2, i64 208
  %15 = load double, ptr %14, align 8, !tbaa !56
  %16 = getelementptr inbounds nuw i8, ptr %2, i64 256
  %17 = load double, ptr %16, align 8, !tbaa !57
  %18 = tail call noundef double @_Z7pj_qsfnddd(double noundef %13, double noundef %15, double noundef %17)
  %19 = fmul double %12, %18
  br label %25

20:                                               ; preds = %3
  %21 = getelementptr inbounds nuw i8, ptr %5, i64 32
  %22 = load double, ptr %21, align 8, !tbaa !63
  %23 = tail call double @sin(double noundef %1) #7, !tbaa !51
  %24 = fmul double %22, %23
  br label %25

25:                                               ; preds = %20, %10
  %26 = phi double [ %19, %10 ], [ %24, %20 ]
  %27 = fsub double %7, %26
  %28 = getelementptr inbounds nuw i8, ptr %5, i64 48
  store double %27, ptr %28, align 8, !tbaa !64
  %29 = fcmp olt double %27, 0.000000e+00
  br i1 %29, label %30, label %32

30:                                               ; preds = %25
  %31 = tail call i32 @proj_errno_set(ptr noundef nonnull %2, i32 noundef 2050)
  br label %47

32:                                               ; preds = %25
  %33 = getelementptr inbounds nuw i8, ptr %5, i64 24
  %34 = load double, ptr %33, align 8, !tbaa !60
  %35 = tail call double @sqrt(double noundef %27) #7, !tbaa !51
  %36 = fmul double %34, %35
  store double %36, ptr %28, align 8, !tbaa !64
  %37 = getelementptr inbounds nuw i8, ptr %5, i64 8
  %38 = load double, ptr %37, align 8, !tbaa !52
  %39 = fmul double %0, %38
  %40 = tail call double @sin(double noundef %39) #7, !tbaa !51
  %41 = fmul double %36, %40
  %42 = getelementptr inbounds nuw i8, ptr %5, i64 40
  %43 = load double, ptr %42, align 8, !tbaa !62
  %44 = tail call double @cos(double noundef %39) #7, !tbaa !51
  %45 = fneg double %36
  %46 = tail call double @llvm.fmuladd.f64(double %45, double %44, double %43)
  br label %47

47:                                               ; preds = %32, %30
  %.sroa.3.0 = phi double [ 0.000000e+00, %30 ], [ %46, %32 ]
  %.sroa.020.0 = phi double [ 0.000000e+00, %30 ], [ %41, %32 ]
  %.fca.0.insert = insertvalue { double, double } poison, double %.sroa.020.0, 0
  %.fca.1.insert = insertvalue { double, double } %.fca.0.insert, double %.sroa.3.0, 1
  ret { double, double } %.fca.1.insert
}